target datalayout = "e-m:e-p270:32:32-p271:32:32-p272:64:64-i64:64-i128:128-f80:128-n8:16:32:64-S128"
target triple = "x86_64-pc-linux-gnu"

%struct.SDL_Renderer = type { ptr, ptr, ptr, ptr, ptr, ptr, ptr, ptr, ptr, ptr, ptr, ptr, ptr, ptr, ptr, ptr, ptr, ptr, ptr, ptr, ptr, ptr, ptr, ptr, ptr, ptr, ptr, ptr, ptr, ptr, i32, i8, ptr, i8, i8, i8, i64, i64, ptr, %struct.SDL_RenderViewState, %struct.SDL_FPoint, i32, i32, ptr, ptr, ptr, i32, float, float, float, float, %struct.SDL_FColor, i32, i32, i32, ptr, ptr, ptr, ptr, i32, %struct.SDL_FColor, float, %struct.SDL_Rect, %struct.SDL_Rect, i8, i8, i8, i8, ptr, i64, i64, i8, ptr, ptr, i32, ptr, i8, ptr, ptr }
%struct.SDL_RenderViewState = type { i32, i32, %struct.SDL_Rect, %struct.SDL_Rect, %struct.SDL_Rect, %struct.SDL_Rect, i8, %struct.SDL_FPoint, i32, i32, i32, %struct.SDL_FRect, %struct.SDL_FRect, %struct.SDL_FPoint, %struct.SDL_FPoint, %struct.SDL_FPoint }
%struct.SDL_FRect = type { float, float, float, float }
%struct.SDL_FPoint = type { float, float }
%struct.SDL_FColor = type { float, float, float, float }
%struct.SDL_Rect = type { i32, i32, i32, i32 }
%struct.GL_RenderData = type { ptr, i8, i8, i32, ptr, ptr, ptr, i32, i8, i8, i8, ptr, ptr, ptr, ptr, ptr, ptr, ptr, ptr, ptr, ptr, ptr, ptr, ptr, ptr, ptr, ptr, ptr, ptr, ptr, ptr, ptr, ptr, ptr, ptr, ptr, ptr, ptr, ptr, ptr, ptr, ptr, ptr, ptr, ptr, ptr, ptr, ptr, ptr, ptr, ptr, ptr, ptr, ptr, ptr, ptr, ptr, ptr, ptr, ptr, i8, ptr, i32, ptr, ptr, ptr, ptr, ptr, ptr, %struct.GL_DrawStateCache }
%struct.GL_DrawStateCache = type { i8, %struct.SDL_Rect, ptr, ptr, i32, i32, i32, i32, [4 x float], ptr, i8, i8, i8, %struct.SDL_Rect, i8, i8, i8, i8, i8, i8, %struct.SDL_FColor, i8, %struct.SDL_FColor }
%struct.SDL_WindowEvent = type { i32, i32, i64, i32, i32, i32 }

; Function Attrs: nounwind uwtable
define internal void @GL_WindowEvent(ptr noundef %0, ptr noundef %1) #0 {
  %3 = alloca ptr, align 8
  %4 = alloca ptr, align 8
  %5 = alloca ptr, align 8
  store ptr %0, ptr %3, align 8
  store ptr %1, ptr %4, align 8
  %6 = load ptr, ptr %4, align 8
  %7 = getelementptr inbounds nuw %struct.SDL_WindowEvent, ptr %6, i32 0, i32 0
  %8 = load i32, ptr %7, align 8
  %9 = icmp eq i32 %8, 518
  br i1 %9, label %15, label %10

10:                                               ; preds = %2
  %11 = load ptr, ptr %4, align 8
  %12 = getelementptr inbounds nuw %struct.SDL_WindowEvent, ptr %11, i32 0, i32 0
  %13 = load i32, ptr %12, align 8
  %14 = icmp eq i32 %13, 517
  br i1 %14, label %15, label %22

15:                                               ; preds = %10, %2
  call void @llvm.lifetime.start.p0(i64 8, ptr %5) #4
  %16 = load ptr, ptr %3, align 8
  %17 = getelementptr inbounds nuw %struct.SDL_Renderer, ptr %16, i32 0, i32 77
  %18 = load ptr, ptr %17, align 8
  store ptr %18, ptr %5, align 8
  %19 = load ptr, ptr %5, align 8
  %20 = getelementptr inbounds nuw %struct.GL_RenderData, ptr %19, i32 0, i32 69
  %21 = getelementptr inbounds nuw %struct.GL_DrawStateCache, ptr %20, i32 0, i32 0
  store i8 1, ptr %21, align 8
  call void @llvm.lifetime.end.p0(i64 8, ptr %5) #4
  br label %22

22:                                               ; preds = %15, %10
  ret void
}