; Function Attrs: mustprogress nofree norecurse nosync nounwind willreturn memory(write, argmem: readwrite, inaccessiblemem: none) uwtable
define internal void @GL_WindowEvent(ptr noundef readonly captures(none) %0, ptr noundef readonly captures(none) %1) #4 {
  %3 = load i32, ptr %1, align 8
  %.off = add i32 %3, -517
  %switch = icmp ult i32 %.off, 2
  br i1 %switch, label %4, label %8

4:                                                ; preds = %2
  %5 = getelementptr inbounds nuw i8, ptr %0, i64 696
  %6 = load ptr, ptr %5, align 8
  %7 = getelementptr inbounds nuw i8, ptr %6, i64 512
  store i8 1, ptr %7, align 8
  br label %8

8:                                                ; preds = %2, %4
  ret void
}